; Function Attrs: inlinehint mustprogress nounwind uwtable
define internal fastcc void @_ZN4cvc58internal6theory2ff5parse12_GLOBAL__N_18SpectrumD2Ev(ptr noundef nonnull align 8 dereferenceable(80) %0) unnamed_addr #5 align 2 personality ptr @__gxx_personality_v0 {
  %2 = getelementptr inbounds nuw i8, ptr %0, i64 64
  invoke void @__gmpz_clear(ptr noundef nonnull align 8 dereferenceable(16) %2)
          to label %_ZN4cvc58internal7IntegerD2Ev.exit.i unwind label %3

3:                                                ; preds = %1
  %4 = landingpad { ptr, i32 }
          catch ptr null
  %5 = extractvalue { ptr, i32 } %4, 0
  tail call void @__clang_call_terminate(ptr %5) #21
  unreachable

_ZN4cvc58internal7IntegerD2Ev.exit.i:             ; preds = %1
  %6 = getelementptr inbounds nuw i8, ptr %0, i64 48
  invoke void @__gmpz_clear(ptr noundef nonnull align 8 dereferenceable(32) %6)
          to label %_ZN4cvc58internal16FiniteFieldValueD2Ev.exit unwind label %7

7:                                                ; preds = %_ZN4cvc58internal7IntegerD2Ev.exit.i
  %8 = landingpad { ptr, i32 }
          catch ptr null
  %9 = extractvalue { ptr, i32 } %8, 0
  tail call void @__clang_call_terminate(ptr %9) #21
  unreachable

_ZN4cvc58internal16FiniteFieldValueD2Ev.exit:     ; preds = %_ZN4cvc58internal7IntegerD2Ev.exit.i
  %10 = getelementptr inbounds nuw i8, ptr %0, i64 32
  invoke void @__gmpz_clear(ptr noundef nonnull align 8 dereferenceable(16) %10)
          to label %_ZN4cvc58internal7IntegerD2Ev.exit.i1 unwind label %11

11:                                               ; preds = %_ZN4cvc58internal16FiniteFieldValueD2Ev.exit
  %12 = landingpad { ptr, i32 }
          catch ptr null
  %13 = extractvalue { ptr, i32 } %12, 0
  tail call void @__clang_call_terminate(ptr %13) #21
  unreachable

_ZN4cvc58internal7IntegerD2Ev.exit.i1:            ; preds = %_ZN4cvc58internal16FiniteFieldValueD2Ev.exit
  %14 = getelementptr inbounds nuw i8, ptr %0, i64 16
  invoke void @__gmpz_clear(ptr noundef nonnull align 8 dereferenceable(32) %14)
          to label %_ZN4cvc58internal16FiniteFieldValueD2Ev.exit2 unwind label %15

15:                                               ; preds = %_ZN4cvc58internal7IntegerD2Ev.exit.i1
  %16 = landingpad { ptr, i32 }
          catch ptr null
  %17 = extractvalue { ptr, i32 } %16, 0
  tail call void @__clang_call_terminate(ptr %17) #21
  unreachable

_ZN4cvc58internal16FiniteFieldValueD2Ev.exit2:    ; preds = %_ZN4cvc58internal7IntegerD2Ev.exit.i1
  %18 = load ptr, ptr %0, align 8, !tbaa !10
  %19 = load i64, ptr %18, align 8
  %20 = and i64 %19, 1152920405095219200
  %.not.i.i = icmp eq i64 %20, 1152920405095219200
  br i1 %.not.i.i, label %_ZN4cvc58internal12NodeTemplateILb1EED2Ev.exit, label %21, !prof !18

21:                                               ; preds = %_ZN4cvc58internal16FiniteFieldValueD2Ev.exit2
  %22 = add i64 %19, 1152920405095219200
  %23 = and i64 %22, 1152920405095219200
  %24 = and i64 %19, -1152920405095219201
  %25 = or disjoint i64 %23, %24
  store i64 %25, ptr %18, align 8
  %26 = icmp eq i64 %23, 0
  br i1 %26, label %27, label %_ZN4cvc58internal12NodeTemplateILb1EED2Ev.exit, !prof !18

27:                                               ; preds = %21
  invoke void @_ZN4cvc58internal4expr9NodeValue15markForDeletionEv(ptr noundef nonnull align 8 dereferenceable(24) %18)
          to label %_ZN4cvc58internal12NodeTemplateILb1EED2Ev.exit unwind label %28

28:                                               ; preds = %27
  %29 = landingpad { ptr, i32 }
          catch ptr null
  %30 = extractvalue { ptr, i32 } %29, 0
  tail call void @__clang_call_terminate(ptr %30) #21
  unreachable

_ZN4cvc58internal12NodeTemplateILb1EED2Ev.exit:   ; preds = %_ZN4cvc58internal16FiniteFieldValueD2Ev.exit2, %21, %27
  ret void
}